; Function Attrs: nounwind uwtable
define hidden noundef zeroext i1 @ctl_boot() local_unnamed_addr #0 {
entry:
  %call = tail call zeroext i1 @malloc_mutex_init(ptr noundef nonnull @ctl_mtx, ptr noundef nonnull @.str, i32 noundef 2, i32 noundef 0) #14
  br i1 %call, label %return, label %if.end

if.end:                                           ; preds = %entry
  store i1 false, ptr @ctl_initialized, align 1
  br label %return

return:                                           ; preds = %entry, %if.end
  ret i1 %call
}